target datalayout = "e-m:e-p270:32:32-p271:32:32-p272:64:64-i64:64-i128:128-f80:128-n8:16:32:64-S128"
target triple = "x86_64-unknown-linux-gnu"

%"class.std::__cxx11::list" = type { %"class.std::__cxx11::_List_base" }
%"class.std::__cxx11::_List_base" = type { %"struct.std::__cxx11::_List_base<grpc_event_engine::experimental::Epoll1Poller *, std::allocator<grpc_event_engine::experimental::Epoll1Poller *>>::_List_impl" }
%"struct.std::__cxx11::_List_base<grpc_event_engine::experimental::Epoll1Poller *, std::allocator<grpc_event_engine::experimental::Epoll1Poller *>>::_List_impl" = type { %"struct.std::__detail::_List_node_header" }
%"struct.std::__detail::_List_node_header" = type { %"struct.std::__detail::_List_node_base", i64 }
%"struct.std::__detail::_List_node_base" = type { ptr, ptr }
%"class.grpc_event_engine::experimental::Epoll1EventHandle" = type { %"class.grpc_event_engine::experimental::EventHandle", %"class.absl::lts_20230802::Mutex", i32, %"struct.std::atomic.0", %"struct.std::atomic.0", %"struct.std::atomic.0", %"class.grpc_event_engine::experimental::Epoll1Poller::HandlesList", ptr, %"class.std::unique_ptr", %"class.std::unique_ptr", %"class.std::unique_ptr" }
%"class.grpc_event_engine::experimental::EventHandle" = type { ptr }
%"class.absl::lts_20230802::Mutex" = type { %"struct.std::atomic" }
%"struct.std::atomic" = type { %"struct.std::__atomic_base" }
%"struct.std::__atomic_base" = type { i64 }
%"struct.std::atomic.0" = type { %"struct.std::__atomic_base.1" }
%"struct.std::__atomic_base.1" = type { i8 }
%"class.grpc_event_engine::experimental::Epoll1Poller::HandlesList" = type { ptr, ptr, ptr }
%"class.std::unique_ptr" = type { %"struct.std::__uniq_ptr_data" }
%"struct.std::__uniq_ptr_data" = type { %"class.std::__uniq_ptr_impl" }
%"class.std::__uniq_ptr_impl" = type { %"class.std::tuple" }
%"class.std::tuple" = type { %"struct.std::_Tuple_impl" }
%"struct.std::_Tuple_impl" = type { %"struct.std::_Head_base.3" }
%"struct.std::_Head_base.3" = type { ptr }
%"struct.std::_List_node" = type { %"struct.std::__detail::_List_node_base", %"struct.__gnu_cxx::__aligned_membuf" }
%"struct.__gnu_cxx::__aligned_membuf" = type { [8 x i8] }
%"struct.std::_List_iterator" = type { ptr }

@_ZN17grpc_event_engine12experimental12_GLOBAL__N_116fork_poller_listB5cxx11E = internal global %"class.std::__cxx11::list" zeroinitializer, align 8
@_ZN17grpc_event_engine12experimental12_GLOBAL__N_115fork_fd_list_muE = internal global i64 0, align 8
@_ZN17grpc_event_engine12experimental12_GLOBAL__N_117fork_fd_list_headE = internal global ptr null, align 8

; Function Attrs: mustprogress nounwind uwtable
define linkonce_odr void @_ZNSt15__new_allocatorISt10_List_nodeIPN17grpc_event_engine12experimental12Epoll1PollerEEE10deallocateEPS5_m(ptr noundef nonnull align 1 dereferenceable(1) %this, ptr noundef %__p, i64 noundef %__n) #4 comdat align 2 {
entry:
  %this.addr = alloca ptr, align 8
  %__p.addr = alloca ptr, align 8
  %__n.addr = alloca i64, align 8
  store ptr %this, ptr %this.addr, align 8
  store ptr %__p, ptr %__p.addr, align 8
  store i64 %__n, ptr %__n.addr, align 8
  %0 = load ptr, ptr %__p.addr, align 8
  call void @_ZdlPv(ptr noundef %0) #19
  ret void
}

; Function Attrs: mustprogress nounwind uwtable
define linkonce_odr noundef ptr @_ZN9__gnu_cxx16__aligned_membufIPN17grpc_event_engine12experimental12Epoll1PollerEE7_M_addrEv(ptr noundef nonnull align 8 dereferenceable(8) %this) #4 comdat align 2 {
entry:
  %this.addr = alloca ptr, align 8
  store ptr %this, ptr %this.addr, align 8
  %this1 = load ptr, ptr %this.addr, align 8
  %_M_storage = getelementptr inbounds %"struct.__gnu_cxx::__aligned_membuf", ptr %this1, i32 0, i32 0
  ret ptr %_M_storage
}

; Function Attrs: noreturn nounwind uwtable
define linkonce_odr hidden void @__clang_call_terminate(ptr noundef %0) #9 comdat {
  %2 = call ptr @__cxa_begin_catch(ptr %0) #3
  call void @_ZSt9terminatev() #17
  unreachable
}

; Function Attrs: mustprogress uwtable
define linkonce_odr void @_ZNSt16allocator_traitsISaISt10_List_nodeIPN17grpc_event_engine12experimental12Epoll1PollerEEEE10deallocateERS6_PS5_m(ptr noundef nonnull align 1 dereferenceable(1) %__a, ptr noundef %__p, i64 noundef %__n) #5 comdat align 2 {
entry:
  %__a.addr = alloca ptr, align 8
  %__p.addr = alloca ptr, align 8
  %__n.addr = alloca i64, align 8
  store ptr %__a, ptr %__a.addr, align 8
  store ptr %__p, ptr %__p.addr, align 8
  store i64 %__n, ptr %__n.addr, align 8
  %0 = load ptr, ptr %__a.addr, align 8
  %1 = load ptr, ptr %__p.addr, align 8
  %2 = load i64, ptr %__n.addr, align 8
  call void @_ZNSt15__new_allocatorISt10_List_nodeIPN17grpc_event_engine12experimental12Epoll1PollerEEE10deallocateEPS5_m(ptr noundef nonnull align 1 dereferenceable(1) %0, ptr noundef %1, i64 noundef %2)
  ret void
}

; Function Attrs: mustprogress nounwind uwtable
define linkonce_odr void @_ZNSt15__new_allocatorISt10_List_nodeIPN17grpc_event_engine12experimental12Epoll1PollerEEE7destroyIS4_EEvPT_(ptr noundef nonnull align 1 dereferenceable(1) %this, ptr noundef %__p) #4 comdat align 2 {
entry:
  %this.addr = alloca ptr, align 8
  %__p.addr = alloca ptr, align 8
  store ptr %this, ptr %this.addr, align 8
  store ptr %__p, ptr %__p.addr, align 8
  ret void
}

; Function Attrs: mustprogress nounwind uwtable
define linkonce_odr noundef ptr @_ZN9__gnu_cxx16__aligned_membufIPN17grpc_event_engine12experimental12Epoll1PollerEE6_M_ptrEv(ptr noundef nonnull align 8 dereferenceable(8) %this) #4 comdat align 2 {
entry:
  %this.addr = alloca ptr, align 8
  store ptr %this, ptr %this.addr, align 8
  %this1 = load ptr, ptr %this.addr, align 8
  %call = call noundef ptr @_ZN9__gnu_cxx16__aligned_membufIPN17grpc_event_engine12experimental12Epoll1PollerEE7_M_addrEv(ptr noundef nonnull align 8 dereferenceable(8) %this1) #3
  ret ptr %call
}

; Function Attrs: mustprogress nounwind uwtable
define linkonce_odr void @_ZNSt7__cxx1110_List_baseIPN17grpc_event_engine12experimental12Epoll1PollerESaIS4_EE11_M_put_nodeEPSt10_List_nodeIS4_E(ptr noundef nonnull align 8 dereferenceable(24) %this, ptr noundef %__p) #4 comdat align 2 personality ptr @__gxx_personality_v0 {
entry:
  %this.addr = alloca ptr, align 8
  %__p.addr = alloca ptr, align 8
  store ptr %this, ptr %this.addr, align 8
  store ptr %__p, ptr %__p.addr, align 8
  %this1 = load ptr, ptr %this.addr, align 8
  %_M_impl = getelementptr inbounds %"class.std::__cxx11::_List_base", ptr %this1, i32 0, i32 0
  %0 = load ptr, ptr %__p.addr, align 8
  invoke void @_ZNSt16allocator_traitsISaISt10_List_nodeIPN17grpc_event_engine12experimental12Epoll1PollerEEEE10deallocateERS6_PS5_m(ptr noundef nonnull align 1 dereferenceable(1) %_M_impl, ptr noundef %0, i64 noundef 1)
          to label %invoke.cont unwind label %terminate.lpad

invoke.cont:                                      ; preds = %entry
  ret void

terminate.lpad:                                   ; preds = %entry
  %1 = landingpad { ptr, i32 }
          catch ptr null
  %2 = extractvalue { ptr, i32 } %1, 0
  call void @__clang_call_terminate(ptr %2) #17
  unreachable
}

; Function Attrs: mustprogress nounwind uwtable
define linkonce_odr void @_ZNSt16allocator_traitsISaISt10_List_nodeIPN17grpc_event_engine12experimental12Epoll1PollerEEEE7destroyIS4_EEvRS6_PT_(ptr noundef nonnull align 1 dereferenceable(1) %__a, ptr noundef %__p) #4 comdat align 2 {
entry:
  %__a.addr = alloca ptr, align 8
  %__p.addr = alloca ptr, align 8
  store ptr %__a, ptr %__a.addr, align 8
  store ptr %__p, ptr %__p.addr, align 8
  %0 = load ptr, ptr %__a.addr, align 8
  %1 = load ptr, ptr %__p.addr, align 8
  call void @_ZNSt15__new_allocatorISt10_List_nodeIPN17grpc_event_engine12experimental12Epoll1PollerEEE7destroyIS4_EEvPT_(ptr noundef nonnull align 1 dereferenceable(1) %0, ptr noundef %1) #3
  ret void
}

; Function Attrs: mustprogress nounwind uwtable
define linkonce_odr noundef nonnull align 1 dereferenceable(1) ptr @_ZNSt7__cxx1110_List_baseIPN17grpc_event_engine12experimental12Epoll1PollerESaIS4_EE21_M_get_Node_allocatorEv(ptr noundef nonnull align 8 dereferenceable(24) %this) #4 comdat align 2 {
entry:
  %this.addr = alloca ptr, align 8
  store ptr %this, ptr %this.addr, align 8
  %this1 = load ptr, ptr %this.addr, align 8
  %_M_impl = getelementptr inbounds %"class.std::__cxx11::_List_base", ptr %this1, i32 0, i32 0
  ret ptr %_M_impl
}

; Function Attrs: mustprogress nounwind uwtable
define linkonce_odr void @_ZNSt7__cxx1110_List_baseIPN17grpc_event_engine12experimental12Epoll1PollerESaIS4_EE11_M_dec_sizeEm(ptr noundef nonnull align 8 dereferenceable(24) %this, i64 noundef %__n) #4 comdat align 2 {
entry:
  %this.addr = alloca ptr, align 8
  %__n.addr = alloca i64, align 8
  store ptr %this, ptr %this.addr, align 8
  store i64 %__n, ptr %__n.addr, align 8
  %this1 = load ptr, ptr %this.addr, align 8
  %0 = load i64, ptr %__n.addr, align 8
  %_M_impl = getelementptr inbounds %"class.std::__cxx11::_List_base", ptr %this1, i32 0, i32 0
  %_M_node = getelementptr inbounds %"struct.std::__cxx11::_List_base<grpc_event_engine::experimental::Epoll1Poller *, std::allocator<grpc_event_engine::experimental::Epoll1Poller *>>::_List_impl", ptr %_M_impl, i32 0, i32 0
  %_M_size = getelementptr inbounds %"struct.std::__detail::_List_node_header", ptr %_M_node, i32 0, i32 1
  %1 = load i64, ptr %_M_size, align 8
  %sub = sub i64 %1, %0
  store i64 %sub, ptr %_M_size, align 8
  ret void
}

; Function Attrs: mustprogress nounwind uwtable
define linkonce_odr noundef ptr @_ZNSt10_List_nodeIPN17grpc_event_engine12experimental12Epoll1PollerEE9_M_valptrEv(ptr noundef nonnull align 8 dereferenceable(24) %this) #4 comdat align 2 {
entry:
  %this.addr = alloca ptr, align 8
  store ptr %this, ptr %this.addr, align 8
  %this1 = load ptr, ptr %this.addr, align 8
  %_M_storage = getelementptr inbounds %"struct.std::_List_node", ptr %this1, i32 0, i32 1
  %call = call noundef ptr @_ZN9__gnu_cxx16__aligned_membufIPN17grpc_event_engine12experimental12Epoll1PollerEE6_M_ptrEv(ptr noundef nonnull align 8 dereferenceable(8) %_M_storage) #3
  ret ptr %call
}

; Function Attrs: mustprogress nounwind uwtable
define linkonce_odr void @_ZNSt14_List_iteratorIPN17grpc_event_engine12experimental12Epoll1PollerEEC2EPNSt8__detail15_List_node_baseE(ptr noundef nonnull align 8 dereferenceable(8) %this, ptr noundef %__x) unnamed_addr #4 comdat align 2 {
entry:
  %this.addr = alloca ptr, align 8
  %__x.addr = alloca ptr, align 8
  store ptr %this, ptr %this.addr, align 8
  store ptr %__x, ptr %__x.addr, align 8
  %this1 = load ptr, ptr %this.addr, align 8
  %_M_node = getelementptr inbounds %"struct.std::_List_iterator", ptr %this1, i32 0, i32 0
  %0 = load ptr, ptr %__x.addr, align 8
  store ptr %0, ptr %_M_node, align 8
  ret void
}

; Function Attrs: mustprogress nounwind uwtable
define linkonce_odr void @_ZNSt7__cxx114listIPN17grpc_event_engine12experimental12Epoll1PollerESaIS4_EE8_M_eraseESt14_List_iteratorIS4_E(ptr noundef nonnull align 8 dereferenceable(24) %this, ptr %__position.coerce) #4 comdat align 2 {
entry:
  %__position = alloca %"struct.std::_List_iterator", align 8
  %this.addr = alloca ptr, align 8
  %__n = alloca ptr, align 8
  %coerce.dive = getelementptr inbounds %"struct.std::_List_iterator", ptr %__position, i32 0, i32 0
  store ptr %__position.coerce, ptr %coerce.dive, align 8
  store ptr %this, ptr %this.addr, align 8
  %this1 = load ptr, ptr %this.addr, align 8
  call void @_ZNSt7__cxx1110_List_baseIPN17grpc_event_engine12experimental12Epoll1PollerESaIS4_EE11_M_dec_sizeEm(ptr noundef nonnull align 8 dereferenceable(24) %this1, i64 noundef 1)
  %_M_node = getelementptr inbounds %"struct.std::_List_iterator", ptr %__position, i32 0, i32 0
  %0 = load ptr, ptr %_M_node, align 8
  call void @_ZNSt8__detail15_List_node_base9_M_unhookEv(ptr noundef nonnull align 8 dereferenceable(16) %0) #3
  %_M_node2 = getelementptr inbounds %"struct.std::_List_iterator", ptr %__position, i32 0, i32 0
  %1 = load ptr, ptr %_M_node2, align 8
  store ptr %1, ptr %__n, align 8
  %call = call noundef nonnull align 1 dereferenceable(1) ptr @_ZNSt7__cxx1110_List_baseIPN17grpc_event_engine12experimental12Epoll1PollerESaIS4_EE21_M_get_Node_allocatorEv(ptr noundef nonnull align 8 dereferenceable(24) %this1) #3
  %2 = load ptr, ptr %__n, align 8
  %call3 = call noundef ptr @_ZNSt10_List_nodeIPN17grpc_event_engine12experimental12Epoll1PollerEE9_M_valptrEv(ptr noundef nonnull align 8 dereferenceable(24) %2)
  call void @_ZNSt16allocator_traitsISaISt10_List_nodeIPN17grpc_event_engine12experimental12Epoll1PollerEEEE7destroyIS4_EEvRS6_PT_(ptr noundef nonnull align 1 dereferenceable(1) %call, ptr noundef %call3) #3
  %3 = load ptr, ptr %__n, align 8
  call void @_ZNSt7__cxx1110_List_baseIPN17grpc_event_engine12experimental12Epoll1PollerESaIS4_EE11_M_put_nodeEPSt10_List_nodeIS4_E(ptr noundef nonnull align 8 dereferenceable(24) %this1, ptr noundef %3) #3
  ret void
}

; Function Attrs: mustprogress nounwind uwtable
define linkonce_odr noundef nonnull align 8 dereferenceable(8) ptr @_ZNKSt14_List_iteratorIPN17grpc_event_engine12experimental12Epoll1PollerEEdeEv(ptr noundef nonnull align 8 dereferenceable(8) %this) #4 comdat align 2 {
entry:
  %this.addr = alloca ptr, align 8
  store ptr %this, ptr %this.addr, align 8
  %this1 = load ptr, ptr %this.addr, align 8
  %_M_node = getelementptr inbounds %"struct.std::_List_iterator", ptr %this1, i32 0, i32 0
  %0 = load ptr, ptr %_M_node, align 8
  %call = call noundef ptr @_ZNSt10_List_nodeIPN17grpc_event_engine12experimental12Epoll1PollerEE9_M_valptrEv(ptr noundef nonnull align 8 dereferenceable(24) %0)
  ret ptr %call
}

; Function Attrs: mustprogress nounwind uwtable
define linkonce_odr ptr @_ZNSt7__cxx114listIPN17grpc_event_engine12experimental12Epoll1PollerESaIS4_EE5beginEv(ptr noundef nonnull align 8 dereferenceable(24) %this) #4 comdat align 2 {
entry:
  %retval = alloca %"struct.std::_List_iterator", align 8
  %this.addr = alloca ptr, align 8
  store ptr %this, ptr %this.addr, align 8
  %this1 = load ptr, ptr %this.addr, align 8
  %_M_impl = getelementptr inbounds %"class.std::__cxx11::_List_base", ptr %this1, i32 0, i32 0
  %_M_node = getelementptr inbounds %"struct.std::__cxx11::_List_base<grpc_event_engine::experimental::Epoll1Poller *, std::allocator<grpc_event_engine::experimental::Epoll1Poller *>>::_List_impl", ptr %_M_impl, i32 0, i32 0
  %_M_next = getelementptr inbounds %"struct.std::__detail::_List_node_base", ptr %_M_node, i32 0, i32 0
  %0 = load ptr, ptr %_M_next, align 8
  call void @_ZNSt14_List_iteratorIPN17grpc_event_engine12experimental12Epoll1PollerEEC2EPNSt8__detail15_List_node_baseE(ptr noundef nonnull align 8 dereferenceable(8) %retval, ptr noundef %0) #3
  %coerce.dive = getelementptr inbounds %"struct.std::_List_iterator", ptr %retval, i32 0, i32 0
  %1 = load ptr, ptr %coerce.dive, align 8
  ret ptr %1
}

; Function Attrs: mustprogress nounwind uwtable
define linkonce_odr void @_ZNSt7__cxx114listIPN17grpc_event_engine12experimental12Epoll1PollerESaIS4_EE9pop_frontEv(ptr noundef nonnull align 8 dereferenceable(24) %this) #4 comdat align 2 {
entry:
  %this.addr = alloca ptr, align 8
  %agg.tmp = alloca %"struct.std::_List_iterator", align 8
  store ptr %this, ptr %this.addr, align 8
  %this1 = load ptr, ptr %this.addr, align 8
  %call = call ptr @_ZNSt7__cxx114listIPN17grpc_event_engine12experimental12Epoll1PollerESaIS4_EE5beginEv(ptr noundef nonnull align 8 dereferenceable(24) %this1) #3
  %coerce.dive = getelementptr inbounds %"struct.std::_List_iterator", ptr %agg.tmp, i32 0, i32 0
  store ptr %call, ptr %coerce.dive, align 8
  %coerce.dive2 = getelementptr inbounds %"struct.std::_List_iterator", ptr %agg.tmp, i32 0, i32 0
  %0 = load ptr, ptr %coerce.dive2, align 8
  call void @_ZNSt7__cxx114listIPN17grpc_event_engine12experimental12Epoll1PollerESaIS4_EE8_M_eraseESt14_List_iteratorIS4_E(ptr noundef nonnull align 8 dereferenceable(24) %this1, ptr %0) #3
  ret void
}

; Function Attrs: mustprogress nounwind uwtable
define linkonce_odr noundef nonnull align 8 dereferenceable(8) ptr @_ZNSt7__cxx114listIPN17grpc_event_engine12experimental12Epoll1PollerESaIS4_EE5frontEv(ptr noundef nonnull align 8 dereferenceable(24) %this) #4 comdat align 2 {
entry:
  %this.addr = alloca ptr, align 8
  %ref.tmp = alloca %"struct.std::_List_iterator", align 8
  store ptr %this, ptr %this.addr, align 8
  %this1 = load ptr, ptr %this.addr, align 8
  %call = call ptr @_ZNSt7__cxx114listIPN17grpc_event_engine12experimental12Epoll1PollerESaIS4_EE5beginEv(ptr noundef nonnull align 8 dereferenceable(24) %this1) #3
  %coerce.dive = getelementptr inbounds %"struct.std::_List_iterator", ptr %ref.tmp, i32 0, i32 0
  store ptr %call, ptr %coerce.dive, align 8
  %call2 = call noundef nonnull align 8 dereferenceable(8) ptr @_ZNKSt14_List_iteratorIPN17grpc_event_engine12experimental12Epoll1PollerEEdeEv(ptr noundef nonnull align 8 dereferenceable(8) %ref.tmp) #3
  ret ptr %call2
}

; Function Attrs: mustprogress nounwind uwtable
define linkonce_odr noundef zeroext i1 @_ZNKSt7__cxx114listIPN17grpc_event_engine12experimental12Epoll1PollerESaIS4_EE5emptyEv(ptr noundef nonnull align 8 dereferenceable(24) %this) #4 comdat align 2 {
entry:
  %this.addr = alloca ptr, align 8
  store ptr %this, ptr %this.addr, align 8
  %this1 = load ptr, ptr %this.addr, align 8
  %_M_impl = getelementptr inbounds %"class.std::__cxx11::_List_base", ptr %this1, i32 0, i32 0
  %_M_node = getelementptr inbounds %"struct.std::__cxx11::_List_base<grpc_event_engine::experimental::Epoll1Poller *, std::allocator<grpc_event_engine::experimental::Epoll1Poller *>>::_List_impl", ptr %_M_impl, i32 0, i32 0
  %_M_next = getelementptr inbounds %"struct.std::__detail::_List_node_base", ptr %_M_node, i32 0, i32 0
  %0 = load ptr, ptr %_M_next, align 8
  %_M_impl2 = getelementptr inbounds %"class.std::__cxx11::_List_base", ptr %this1, i32 0, i32 0
  %_M_node3 = getelementptr inbounds %"struct.std::__cxx11::_List_base<grpc_event_engine::experimental::Epoll1Poller *, std::allocator<grpc_event_engine::experimental::Epoll1Poller *>>::_List_impl", ptr %_M_impl2, i32 0, i32 0
  %cmp = icmp eq ptr %0, %_M_node3
  ret i1 %cmp
}

; Function Attrs: mustprogress nounwind uwtable
define linkonce_odr noundef nonnull align 8 dereferenceable(24) ptr @_ZN17grpc_event_engine12experimental17Epoll1EventHandle13ForkFdListPosEv(ptr noundef nonnull align 8 dereferenceable(80) %this) #4 comdat align 2 {
entry:
  %this.addr = alloca ptr, align 8
  store ptr %this, ptr %this.addr, align 8
  %this1 = load ptr, ptr %this.addr, align 8
  %list_ = getelementptr inbounds %"class.grpc_event_engine::experimental::Epoll1EventHandle", ptr %this1, i32 0, i32 6
  ret ptr %list_
}

; Function Attrs: mustprogress uwtable
define internal void @_ZN17grpc_event_engine12experimental12_GLOBAL__N_123ResetEventManagerOnForkEv() #5 {
entry:
  %next = alloca ptr, align 8
  %poller = alloca ptr, align 8
  call void @gpr_mu_lock(ptr noundef @_ZN17grpc_event_engine12experimental12_GLOBAL__N_115fork_fd_list_muE)
  br label %while.cond

while.cond:                                       ; preds = %delete.end, %entry
  %0 = load ptr, ptr @_ZN17grpc_event_engine12experimental12_GLOBAL__N_117fork_fd_list_headE, align 8
  %cmp = icmp ne ptr %0, null
  br i1 %cmp, label %while.body, label %while.end

while.body:                                       ; preds = %while.cond
  %1 = load ptr, ptr @_ZN17grpc_event_engine12experimental12_GLOBAL__N_117fork_fd_list_headE, align 8
  %vtable = load ptr, ptr %1, align 8
  %vfn = getelementptr inbounds ptr, ptr %vtable, i64 0
  %2 = load ptr, ptr %vfn, align 8
  %call = call noundef i32 %2(ptr noundef nonnull align 8 dereferenceable(80) %1)
  %call1 = call i32 @close(i32 noundef %call)
  %3 = load ptr, ptr @_ZN17grpc_event_engine12experimental12_GLOBAL__N_117fork_fd_list_headE, align 8
  %call2 = call noundef nonnull align 8 dereferenceable(24) ptr @_ZN17grpc_event_engine12experimental17Epoll1EventHandle13ForkFdListPosEv(ptr noundef nonnull align 8 dereferenceable(80) %3)
  %next3 = getelementptr inbounds %"class.grpc_event_engine::experimental::Epoll1Poller::HandlesList", ptr %call2, i32 0, i32 1
  %4 = load ptr, ptr %next3, align 8
  store ptr %4, ptr %next, align 8
  %5 = load ptr, ptr @_ZN17grpc_event_engine12experimental12_GLOBAL__N_117fork_fd_list_headE, align 8
  %isnull = icmp eq ptr %5, null
  br i1 %isnull, label %delete.end, label %delete.notnull

delete.notnull:                                   ; preds = %while.body
  %vtable4 = load ptr, ptr %5, align 8
  %vfn5 = getelementptr inbounds ptr, ptr %vtable4, i64 12
  %6 = load ptr, ptr %vfn5, align 8
  call void %6(ptr noundef nonnull align 8 dereferenceable(80) %5) #3
  br label %delete.end

delete.end:                                       ; preds = %delete.notnull, %while.body
  %7 = load ptr, ptr %next, align 8
  store ptr %7, ptr @_ZN17grpc_event_engine12experimental12_GLOBAL__N_117fork_fd_list_headE, align 8
  br label %while.cond, !llvm.loop !12

while.end:                                        ; preds = %while.cond
  br label %while.cond6

while.cond6:                                      ; preds = %while.body8, %while.end
  %call7 = call noundef zeroext i1 @_ZNKSt7__cxx114listIPN17grpc_event_engine12experimental12Epoll1PollerESaIS4_EE5emptyEv(ptr noundef nonnull align 8 dereferenceable(24) @_ZN17grpc_event_engine12experimental12_GLOBAL__N_116fork_poller_listB5cxx11E) #3
  %lnot = xor i1 %call7, true
  br i1 %lnot, label %while.body8, label %while.end10

while.body8:                                      ; preds = %while.cond6
  %call9 = call noundef nonnull align 8 dereferenceable(8) ptr @_ZNSt7__cxx114listIPN17grpc_event_engine12experimental12Epoll1PollerESaIS4_EE5frontEv(ptr noundef nonnull align 8 dereferenceable(24) @_ZN17grpc_event_engine12experimental12_GLOBAL__N_116fork_poller_listB5cxx11E) #3
  %8 = load ptr, ptr %call9, align 8
  store ptr %8, ptr %poller, align 8
  call void @_ZNSt7__cxx114listIPN17grpc_event_engine12experimental12Epoll1PollerESaIS4_EE9pop_frontEv(ptr noundef nonnull align 8 dereferenceable(24) @_ZN17grpc_event_engine12experimental12_GLOBAL__N_116fork_poller_listB5cxx11E) #3
  %9 = load ptr, ptr %poller, align 8
  call void @_ZN17grpc_event_engine12experimental12Epoll1Poller5CloseEv(ptr noundef nonnull align 8 dereferenceable(1281) %9)
  br label %while.cond6, !llvm.loop !13

while.end10:                                      ; preds = %while.cond6
  call void @gpr_mu_unlock(ptr noundef @_ZN17grpc_event_engine12experimental12_GLOBAL__N_115fork_fd_list_muE)
  %call11 = call noundef zeroext i1 @_ZN17grpc_event_engine12experimental12_GLOBAL__N_121InitEpoll1PollerLinuxEv()
  ret void
}