; Function Attrs: mustprogress uwtable
define internal void @_ZN17grpc_event_engine12experimental12_GLOBAL__N_123ResetEventManagerOnForkEv() #4 personality ptr @__gxx_personality_v0 {
entry:
  tail call void @gpr_mu_lock(ptr noundef nonnull @_ZN17grpc_event_engine12experimental12_GLOBAL__N_115fork_fd_list_muE)
  %.pr = load ptr, ptr @_ZN17grpc_event_engine12experimental12_GLOBAL__N_117fork_fd_list_headE, align 8
  %cmp.not2 = icmp eq ptr %.pr, null
  br i1 %cmp.not2, label %while.cond6.preheader, label %delete.end

while.cond6.preheader:                            ; preds = %delete.end, %entry
  %0 = load ptr, ptr @_ZN17grpc_event_engine12experimental12_GLOBAL__N_116fork_poller_listB5cxx11E, align 8
  %cmp.i3 = icmp eq ptr %0, @_ZN17grpc_event_engine12experimental12_GLOBAL__N_116fork_poller_listB5cxx11E
  br i1 %cmp.i3, label %while.end10, label %while.body8

delete.end:                                       ; preds = %entry, %delete.end
  %1 = phi ptr [ %4, %delete.end ], [ %.pr, %entry ]
  %vtable = load ptr, ptr %1, align 8
  %2 = load ptr, ptr %vtable, align 8
  %call = tail call noundef i32 %2(ptr noundef nonnull align 8 dereferenceable(80) %1)
  %call1 = tail call i32 @close(i32 noundef %call)
  %3 = load ptr, ptr @_ZN17grpc_event_engine12experimental12_GLOBAL__N_117fork_fd_list_headE, align 8
  %next3 = getelementptr inbounds i8, ptr %3, i64 32
  %4 = load ptr, ptr %next3, align 8
  %vtable4 = load ptr, ptr %3, align 8
  %vfn5 = getelementptr inbounds i8, ptr %vtable4, i64 96
  %5 = load ptr, ptr %vfn5, align 8
  tail call void %5(ptr noundef nonnull align 8 dereferenceable(80) %3) #20
  store ptr %4, ptr @_ZN17grpc_event_engine12experimental12_GLOBAL__N_117fork_fd_list_headE, align 8
  %cmp.not = icmp eq ptr %4, null
  br i1 %cmp.not, label %while.cond6.preheader, label %delete.end, !llvm.loop !31

while.body8:                                      ; preds = %while.cond6.preheader, %while.body8
  %6 = phi ptr [ %9, %while.body8 ], [ %0, %while.cond6.preheader ]
  %_M_storage.i.i.i = getelementptr inbounds i8, ptr %6, i64 16
  %7 = load ptr, ptr %_M_storage.i.i.i, align 8
  %8 = load i64, ptr getelementptr inbounds (%"class.std::__cxx11::list", ptr @_ZN17grpc_event_engine12experimental12_GLOBAL__N_116fork_poller_listB5cxx11E, i64 0, i32 0, i32 0, i32 0, i32 1), align 8
  %sub.i.i.i = add i64 %8, -1
  store i64 %sub.i.i.i, ptr getelementptr inbounds (%"class.std::__cxx11::list", ptr @_ZN17grpc_event_engine12experimental12_GLOBAL__N_116fork_poller_listB5cxx11E, i64 0, i32 0, i32 0, i32 0, i32 1), align 8
  tail call void @_ZNSt8__detail15_List_node_base9_M_unhookEv(ptr noundef nonnull align 8 dereferenceable(16) %6) #20
  tail call void @_ZdlPv(ptr noundef %6) #18
  tail call void @_ZN17grpc_event_engine12experimental12Epoll1Poller5CloseEv(ptr noundef nonnull align 8 dereferenceable(1281) %7)
  %9 = load ptr, ptr @_ZN17grpc_event_engine12experimental12_GLOBAL__N_116fork_poller_listB5cxx11E, align 8
  %cmp.i = icmp eq ptr %9, @_ZN17grpc_event_engine12experimental12_GLOBAL__N_116fork_poller_listB5cxx11E
  br i1 %cmp.i, label %while.end10, label %while.body8, !llvm.loop !32

while.end10:                                      ; preds = %while.body8, %while.cond6.preheader
  tail call void @gpr_mu_unlock(ptr noundef nonnull @_ZN17grpc_event_engine12experimental12_GLOBAL__N_115fork_fd_list_muE)
  %call11 = tail call fastcc noundef zeroext i1 @_ZN17grpc_event_engine12experimental12_GLOBAL__N_121InitEpoll1PollerLinuxEv()
  ret void
}